target datalayout = "e-m:e-p270:32:32-p271:32:32-p272:64:64-i64:64-i128:128-f80:128-n8:16:32:64-S128"
target triple = "x86_64-pc-linux-gnu"

%struct.OSQPCodegenDefines = type { i64, i64, i64, i64, i64, i64 }

; Function Attrs: nounwind uwtable
define void @osqp_set_default_codegen_defines(ptr noundef %0) #0 {
  %2 = alloca ptr, align 8
  store ptr %0, ptr %2, align 8
  %3 = load ptr, ptr %2, align 8
  %4 = icmp ne ptr %3, null
  br i1 %4, label %6, label %5

5:                                                ; preds = %1
  br label %19

6:                                                ; preds = %1
  %7 = load ptr, ptr %2, align 8
  %8 = getelementptr inbounds %struct.OSQPCodegenDefines, ptr %7, i32 0, i32 0
  store i64 1, ptr %8, align 8
  %9 = load ptr, ptr %2, align 8
  %10 = getelementptr inbounds %struct.OSQPCodegenDefines, ptr %9, i32 0, i32 1
  store i64 0, ptr %10, align 8
  %11 = load ptr, ptr %2, align 8
  %12 = getelementptr inbounds %struct.OSQPCodegenDefines, ptr %11, i32 0, i32 2
  store i64 0, ptr %12, align 8
  %13 = load ptr, ptr %2, align 8
  %14 = getelementptr inbounds %struct.OSQPCodegenDefines, ptr %13, i32 0, i32 3
  store i64 0, ptr %14, align 8
  %15 = load ptr, ptr %2, align 8
  %16 = getelementptr inbounds %struct.OSQPCodegenDefines, ptr %15, i32 0, i32 4
  store i64 0, ptr %16, align 8
  %17 = load ptr, ptr %2, align 8
  %18 = getelementptr inbounds %struct.OSQPCodegenDefines, ptr %17, i32 0, i32 5
  store i64 0, ptr %18, align 8
  br label %19

19:                                               ; preds = %6, %5
  ret void
}